; Function Attrs: mustprogress nounwind uwtable
define void @_ZN3gmx19DirectoryEnumeratorD2Ev(ptr noundef nonnull align 8 captures(none) dereferenceable(8) %0) unnamed_addr #5 align 2 personality ptr @__gxx_personality_v0 {
  %2 = load ptr, ptr %0, align 8, !tbaa !7
  %.not.i = icmp eq ptr %2, null
  br i1 %.not.i, label %_ZNSt10unique_ptrIN3gmx19DirectoryEnumerator4ImplESt14default_deleteIS2_EED2Ev.exit, label %3

3:                                                ; preds = %1
  %4 = getelementptr inbounds nuw i8, ptr %2, i64 8
  %5 = load ptr, ptr %4, align 8, !tbaa !90
  %.not.i.i.i.i.i.i = icmp eq ptr %5, null
  br i1 %.not.i.i.i.i.i.i, label %_ZNKSt14default_deleteIN3gmx19DirectoryEnumerator4ImplEEclEPS2_.exit.i, label %6

6:                                                ; preds = %3
  %7 = getelementptr inbounds nuw i8, ptr %5, i64 8
  %8 = load atomic i64, ptr %7 acquire, align 8
  %9 = icmp eq i64 %8, 4294967297
  %10 = trunc i64 %8 to i32
  br i1 %9, label %11, label %19

11:                                               ; preds = %6
  store i32 0, ptr %7, align 8, !tbaa !93
  %12 = getelementptr inbounds nuw i8, ptr %5, i64 12
  store i32 0, ptr %12, align 4, !tbaa !96
  %13 = load ptr, ptr %5, align 8, !tbaa !67
  %14 = getelementptr inbounds nuw i8, ptr %13, i64 16
  %15 = load ptr, ptr %14, align 8
  tail call void %15(ptr noundef nonnull align 8 dereferenceable(16) %5) #23
  %16 = load ptr, ptr %5, align 8, !tbaa !67
  %17 = getelementptr inbounds nuw i8, ptr %16, i64 24
  %18 = load ptr, ptr %17, align 8
  tail call void %18(ptr noundef nonnull align 8 dereferenceable(16) %5) #23
  br label %_ZNKSt14default_deleteIN3gmx19DirectoryEnumerator4ImplEEclEPS2_.exit.i

19:                                               ; preds = %6
  %20 = load i8, ptr @__libc_single_threaded, align 1, !tbaa !33
  %.not.i.i.i.i.i.i.i = icmp eq i8 %20, 0
  br i1 %.not.i.i.i.i.i.i.i, label %23, label %21

21:                                               ; preds = %19
  %22 = add nsw i32 %10, -1
  store i32 %22, ptr %7, align 4, !tbaa !97
  br label %_ZN9__gnu_cxx27__exchange_and_add_dispatchEPii.exit.i.i.i.i.i.i.i

23:                                               ; preds = %19
  %24 = atomicrmw volatile add ptr %7, i32 -1 acq_rel, align 4
  br label %_ZN9__gnu_cxx27__exchange_and_add_dispatchEPii.exit.i.i.i.i.i.i.i

_ZN9__gnu_cxx27__exchange_and_add_dispatchEPii.exit.i.i.i.i.i.i.i: ; preds = %23, %21
  %.0.i.i.i.i.i.i.i.i = phi i32 [ %10, %21 ], [ %24, %23 ]
  %25 = icmp eq i32 %.0.i.i.i.i.i.i.i.i, 1
  br i1 %25, label %26, label %_ZNKSt14default_deleteIN3gmx19DirectoryEnumerator4ImplEEclEPS2_.exit.i, !prof !76

26:                                               ; preds = %_ZN9__gnu_cxx27__exchange_and_add_dispatchEPii.exit.i.i.i.i.i.i.i
  tail call void @_ZNSt16_Sp_counted_baseILN9__gnu_cxx12_Lock_policyE2EE24_M_release_last_use_coldEv(ptr noundef nonnull align 8 dereferenceable(16) %5) #23
  br label %_ZNKSt14default_deleteIN3gmx19DirectoryEnumerator4ImplEEclEPS2_.exit.i

_ZNKSt14default_deleteIN3gmx19DirectoryEnumerator4ImplEEclEPS2_.exit.i: ; preds = %26, %_ZN9__gnu_cxx27__exchange_and_add_dispatchEPii.exit.i.i.i.i.i.i.i, %11, %3
  tail call void @_ZdlPvm(ptr noundef nonnull %2, i64 noundef 16) #25
  br label %_ZNSt10unique_ptrIN3gmx19DirectoryEnumerator4ImplESt14default_deleteIS2_EED2Ev.exit

_ZNSt10unique_ptrIN3gmx19DirectoryEnumerator4ImplESt14default_deleteIS2_EED2Ev.exit: ; preds = %1, %_ZNKSt14default_deleteIN3gmx19DirectoryEnumerator4ImplEEclEPS2_.exit.i
  store ptr null, ptr %0, align 8, !tbaa !7
  ret void
}